target datalayout = "e-m:e-p270:32:32-p271:32:32-p272:64:64-i64:64-i128:128-f80:128-n8:16:32:64-S128"
target triple = "x86_64-pc-linux-gnu"

%"class.llvm::SmallVectorBase" = type { ptr, i32, i32 }
%"class.(anonymous namespace)::ModuleBitcodeWriterBase" = type { %"class.(anonymous namespace)::BitcodeWriterBase", ptr, %"class.llvm::ValueEnumerator", ptr, %"class.std::map.217", i32, i64 }
%"class.(anonymous namespace)::BitcodeWriterBase" = type { ptr, ptr }
%"class.llvm::ValueEnumerator" = type <{ %"class.std::vector.152", %"class.llvm::DenseMap.157", %"class.std::vector.160", %"class.llvm::DenseMap.165", %"class.std::vector.168", %"class.llvm::UniqueVector", %"class.std::vector.181", %"class.std::vector.181", %"class.llvm::DenseMap.186", %"class.llvm::SmallDenseMap", i8, [7 x i8], %"class.llvm::DenseMap.190", %"class.std::vector.193", %"class.llvm::DenseMap.198", %"class.std::vector.201", %"class.llvm::DenseMap.206", %"class.llvm::DenseMap.209", i32, [4 x i8], %"class.std::vector.212", i32, i32, i32, i32, i32, [4 x i8] }>
%"class.std::vector.152" = type { %"struct.std::_Vector_base.153" }
%"struct.std::_Vector_base.153" = type { %"struct.std::_Vector_base<llvm::UseListOrder, std::allocator<llvm::UseListOrder>>::_Vector_impl" }
%"struct.std::_Vector_base<llvm::UseListOrder, std::allocator<llvm::UseListOrder>>::_Vector_impl" = type { %"struct.std::_Vector_base<llvm::UseListOrder, std::allocator<llvm::UseListOrder>>::_Vector_impl_data" }
%"struct.std::_Vector_base<llvm::UseListOrder, std::allocator<llvm::UseListOrder>>::_Vector_impl_data" = type { ptr, ptr, ptr }
%"class.llvm::DenseMap.157" = type <{ ptr, i32, i32, i32, [4 x i8] }>
%"class.std::vector.160" = type { %"struct.std::_Vector_base.161" }
%"struct.std::_Vector_base.161" = type { %"struct.std::_Vector_base<llvm::Type *, std::allocator<llvm::Type *>>::_Vector_impl" }
%"struct.std::_Vector_base<llvm::Type *, std::allocator<llvm::Type *>>::_Vector_impl" = type { %"struct.std::_Vector_base<llvm::Type *, std::allocator<llvm::Type *>>::_Vector_impl_data" }
%"struct.std::_Vector_base<llvm::Type *, std::allocator<llvm::Type *>>::_Vector_impl_data" = type { ptr, ptr, ptr }
%"class.llvm::DenseMap.165" = type <{ ptr, i32, i32, i32, [4 x i8] }>
%"class.std::vector.168" = type { %"struct.std::_Vector_base.169" }
%"struct.std::_Vector_base.169" = type { %"struct.std::_Vector_base<std::pair<const llvm::Value *, unsigned int>, std::allocator<std::pair<const llvm::Value *, unsigned int>>>::_Vector_impl" }
%"struct.std::_Vector_base<std::pair<const llvm::Value *, unsigned int>, std::allocator<std::pair<const llvm::Value *, unsigned int>>>::_Vector_impl" = type { %"struct.std::_Vector_base<std::pair<const llvm::Value *, unsigned int>, std::allocator<std::pair<const llvm::Value *, unsigned int>>>::_Vector_impl_data" }
%"struct.std::_Vector_base<std::pair<const llvm::Value *, unsigned int>, std::allocator<std::pair<const llvm::Value *, unsigned int>>>::_Vector_impl_data" = type { ptr, ptr, ptr }
%"class.llvm::UniqueVector" = type { %"class.std::map", %"class.std::vector.176" }
%"class.std::map" = type { %"class.std::_Rb_tree" }
%"class.std::_Rb_tree" = type { %"struct.std::_Rb_tree<const llvm::Comdat *, std::pair<const llvm::Comdat *const, unsigned int>, std::_Select1st<std::pair<const llvm::Comdat *const, unsigned int>>, std::less<const llvm::Comdat *>>::_Rb_tree_impl" }
%"struct.std::_Rb_tree<const llvm::Comdat *, std::pair<const llvm::Comdat *const, unsigned int>, std::_Select1st<std::pair<const llvm::Comdat *const, unsigned int>>, std::less<const llvm::Comdat *>>::_Rb_tree_impl" = type { [8 x i8], %"struct.std::_Rb_tree_header" }
%"struct.std::_Rb_tree_header" = type { %"struct.std::_Rb_tree_node_base", i64 }
%"struct.std::_Rb_tree_node_base" = type { i32, ptr, ptr, ptr }
%"class.std::vector.176" = type { %"struct.std::_Vector_base.177" }
%"struct.std::_Vector_base.177" = type { %"struct.std::_Vector_base<const llvm::Comdat *, std::allocator<const llvm::Comdat *>>::_Vector_impl" }
%"struct.std::_Vector_base<const llvm::Comdat *, std::allocator<const llvm::Comdat *>>::_Vector_impl" = type { %"struct.std::_Vector_base<const llvm::Comdat *, std::allocator<const llvm::Comdat *>>::_Vector_impl_data" }
%"struct.std::_Vector_base<const llvm::Comdat *, std::allocator<const llvm::Comdat *>>::_Vector_impl_data" = type { ptr, ptr, ptr }
%"class.std::vector.181" = type { %"struct.std::_Vector_base.182" }
%"struct.std::_Vector_base.182" = type { %"struct.std::_Vector_base<const llvm::Metadata *, std::allocator<const llvm::Metadata *>>::_Vector_impl" }
%"struct.std::_Vector_base<const llvm::Metadata *, std::allocator<const llvm::Metadata *>>::_Vector_impl" = type { %"struct.std::_Vector_base<const llvm::Metadata *, std::allocator<const llvm::Metadata *>>::_Vector_impl_data" }
%"struct.std::_Vector_base<const llvm::Metadata *, std::allocator<const llvm::Metadata *>>::_Vector_impl_data" = type { ptr, ptr, ptr }
%"class.llvm::DenseMap.186" = type <{ ptr, i32, i32, i32, [4 x i8] }>
%"class.llvm::SmallDenseMap" = type { i32, i32, %"struct.llvm::AlignedCharArrayUnion" }
%"struct.llvm::AlignedCharArrayUnion" = type { [16 x i8] }
%"class.llvm::DenseMap.190" = type <{ ptr, i32, i32, i32, [4 x i8] }>
%"class.std::vector.193" = type { %"struct.std::_Vector_base.194" }
%"struct.std::_Vector_base.194" = type { %"struct.std::_Vector_base<std::pair<unsigned int, llvm::AttributeSet>, std::allocator<std::pair<unsigned int, llvm::AttributeSet>>>::_Vector_impl" }
%"struct.std::_Vector_base<std::pair<unsigned int, llvm::AttributeSet>, std::allocator<std::pair<unsigned int, llvm::AttributeSet>>>::_Vector_impl" = type { %"struct.std::_Vector_base<std::pair<unsigned int, llvm::AttributeSet>, std::allocator<std::pair<unsigned int, llvm::AttributeSet>>>::_Vector_impl_data" }
%"struct.std::_Vector_base<std::pair<unsigned int, llvm::AttributeSet>, std::allocator<std::pair<unsigned int, llvm::AttributeSet>>>::_Vector_impl_data" = type { ptr, ptr, ptr }
%"class.llvm::DenseMap.198" = type <{ ptr, i32, i32, i32, [4 x i8] }>
%"class.std::vector.201" = type { %"struct.std::_Vector_base.202" }
%"struct.std::_Vector_base.202" = type { %"struct.std::_Vector_base<llvm::AttributeList, std::allocator<llvm::AttributeList>>::_Vector_impl" }
%"struct.std::_Vector_base<llvm::AttributeList, std::allocator<llvm::AttributeList>>::_Vector_impl" = type { %"struct.std::_Vector_base<llvm::AttributeList, std::allocator<llvm::AttributeList>>::_Vector_impl_data" }
%"struct.std::_Vector_base<llvm::AttributeList, std::allocator<llvm::AttributeList>>::_Vector_impl_data" = type { ptr, ptr, ptr }
%"class.llvm::DenseMap.206" = type <{ ptr, i32, i32, i32, [4 x i8] }>
%"class.llvm::DenseMap.209" = type <{ ptr, i32, i32, i32, [4 x i8] }>
%"class.std::vector.212" = type { %"struct.std::_Vector_base.213" }
%"struct.std::_Vector_base.213" = type { %"struct.std::_Vector_base<const llvm::BasicBlock *, std::allocator<const llvm::BasicBlock *>>::_Vector_impl" }
%"struct.std::_Vector_base<const llvm::BasicBlock *, std::allocator<const llvm::BasicBlock *>>::_Vector_impl" = type { %"struct.std::_Vector_base<const llvm::BasicBlock *, std::allocator<const llvm::BasicBlock *>>::_Vector_impl_data" }
%"struct.std::_Vector_base<const llvm::BasicBlock *, std::allocator<const llvm::BasicBlock *>>::_Vector_impl_data" = type { ptr, ptr, ptr }
%"class.std::map.217" = type { %"class.std::_Rb_tree.218" }
%"class.std::_Rb_tree.218" = type { %"struct.std::_Rb_tree<unsigned long, std::pair<const unsigned long, unsigned int>, std::_Select1st<std::pair<const unsigned long, unsigned int>>, std::less<unsigned long>>::_Rb_tree_impl" }
%"struct.std::_Rb_tree<unsigned long, std::pair<const unsigned long, unsigned int>, std::_Select1st<std::pair<const unsigned long, unsigned int>>, std::less<unsigned long>>::_Rb_tree_impl" = type { [8 x i8], %"struct.std::_Rb_tree_header" }
%"class.llvm::SmallVectorImpl.421" = type { %"class.llvm::SmallVectorTemplateBase.422" }
%"class.llvm::SmallVectorTemplateBase.422" = type { %"class.llvm::SmallVectorTemplateCommon.423" }
%"class.llvm::SmallVectorTemplateCommon.423" = type { %"class.llvm::SmallVectorBase" }
%class.anon.555 = type { ptr }
%"class.llvm::SmallVector.608" = type { %"class.llvm::SmallVectorImpl.421", %"struct.llvm::SmallVectorStorage.609" }
%"struct.llvm::SmallVectorStorage.609" = type { [32 x i8] }

; Function Attrs: mustprogress nounwind uwtable
define linkonce_odr hidden void @_ZN4llvm25SmallVectorTemplateCommonImvE8grow_podEmm(ptr noundef nonnull align 8 dereferenceable(16) %0, i64 noundef %1, i64 noundef %2) #1 comdat align 2 {
  %4 = alloca ptr, align 8
  %5 = alloca i64, align 8
  %6 = alloca i64, align 8
  store ptr %0, ptr %4, align 8
  store i64 %1, ptr %5, align 8
  store i64 %2, ptr %6, align 8
  %7 = load ptr, ptr %4, align 8
  %8 = call noundef ptr @_ZNK4llvm25SmallVectorTemplateCommonImvE10getFirstElEv(ptr noundef nonnull align 8 dereferenceable(16) %7)
  %9 = load i64, ptr %5, align 8
  %10 = load i64, ptr %6, align 8
  call void @_ZN4llvm15SmallVectorBaseIjE8grow_podEPvmm(ptr noundef nonnull align 8 dereferenceable(16) %7, ptr noundef %8, i64 noundef %9, i64 noundef %10)
  ret void
}

; Function Attrs: mustprogress nounwind uwtable
define linkonce_odr hidden noundef ptr @_ZNK4llvm25SmallVectorTemplateCommonImvE10getFirstElEv(ptr noundef nonnull align 8 dereferenceable(16) %0) #1 comdat align 2 {
  %2 = alloca ptr, align 8
  store ptr %0, ptr %2, align 8
  %3 = load ptr, ptr %2, align 8
  %4 = getelementptr inbounds i8, ptr %3, i64 16
  ret ptr %4
}

; Function Attrs: mustprogress nounwind uwtable
define linkonce_odr hidden void @_ZN4llvm23SmallVectorTemplateBaseImLb1EE4growEm(ptr noundef nonnull align 8 dereferenceable(16) %0, i64 noundef %1) #1 comdat align 2 {
  %3 = alloca ptr, align 8
  %4 = alloca i64, align 8
  store ptr %0, ptr %3, align 8
  store i64 %1, ptr %4, align 8
  %5 = load ptr, ptr %3, align 8
  %6 = load i64, ptr %4, align 8
  call void @_ZN4llvm25SmallVectorTemplateCommonImvE8grow_podEmm(ptr noundef nonnull align 8 dereferenceable(16) %5, i64 noundef %6, i64 noundef 8)
  ret void
}

; Function Attrs: mustprogress nounwind uwtable
define linkonce_odr hidden void @_ZN4llvm25SmallVectorTemplateCommonImvEC2Em(ptr noundef nonnull align 8 dereferenceable(16) %0, i64 noundef %1) unnamed_addr #1 comdat align 2 {
  %3 = alloca ptr, align 8
  %4 = alloca i64, align 8
  store ptr %0, ptr %3, align 8
  store i64 %1, ptr %4, align 8
  %5 = load ptr, ptr %3, align 8
  %6 = call noundef ptr @_ZNK4llvm25SmallVectorTemplateCommonImvE10getFirstElEv(ptr noundef nonnull align 8 dereferenceable(16) %5)
  %7 = load i64, ptr %4, align 8
  call void @_ZN4llvm15SmallVectorBaseIjEC2EPvm(ptr noundef nonnull align 8 dereferenceable(16) %5, ptr noundef %6, i64 noundef %7)
  ret void
}

; Function Attrs: mustprogress nounwind uwtable
define linkonce_odr hidden noundef zeroext i1 @_ZNK4llvm25SmallVectorTemplateCommonImvE7isSmallEv(ptr noundef nonnull align 8 dereferenceable(16) %0) #1 comdat align 2 {
  %2 = alloca ptr, align 8
  store ptr %0, ptr %2, align 8
  %3 = load ptr, ptr %2, align 8
  %4 = getelementptr inbounds nuw %"class.llvm::SmallVectorBase", ptr %3, i32 0, i32 0
  %5 = load ptr, ptr %4, align 8
  %6 = call noundef ptr @_ZNK4llvm25SmallVectorTemplateCommonImvE10getFirstElEv(ptr noundef nonnull align 8 dereferenceable(16) %3)
  %7 = icmp eq ptr %5, %6
  ret i1 %7
}

; Function Attrs: mustprogress nounwind uwtable
define linkonce_odr hidden noundef ptr @_ZN4llvm25SmallVectorTemplateCommonImvE32reserveForParamAndGetAddressImplINS_23SmallVectorTemplateBaseImLb1EEEEEPKmPT_RS5_m(ptr noundef %0, ptr noundef nonnull align 8 dereferenceable(8) %1, i64 noundef %2) #1 comdat align 2 {
  %4 = alloca ptr, align 8
  %5 = alloca ptr, align 8
  %6 = alloca ptr, align 8
  %7 = alloca i64, align 8
  %8 = alloca i64, align 8
  %9 = alloca i8, align 1
  %10 = alloca i64, align 8
  store ptr %0, ptr %5, align 8
  store ptr %1, ptr %6, align 8
  store i64 %2, ptr %7, align 8
  %11 = load ptr, ptr %5, align 8
  %12 = call noundef i64 @_ZNK4llvm15SmallVectorBaseIjE4sizeEv(ptr noundef nonnull align 8 dereferenceable(16) %11)
  %13 = load i64, ptr %7, align 8
  %14 = add i64 %12, %13
  store i64 %14, ptr %8, align 8
  %15 = load i64, ptr %8, align 8
  %16 = load ptr, ptr %5, align 8
  %17 = call noundef i64 @_ZNK4llvm15SmallVectorBaseIjE8capacityEv(ptr noundef nonnull align 8 dereferenceable(16) %16)
  %18 = icmp ule i64 %15, %17
  br i1 %18, label %19, label %21

19:                                               ; preds = %3
  %20 = load ptr, ptr %6, align 8
  store ptr %20, ptr %4, align 8
  br label %35

21:                                               ; preds = %3
  store i8 0, ptr %9, align 1
  store i64 -1, ptr %10, align 8
  %22 = load ptr, ptr %5, align 8
  %23 = load i64, ptr %8, align 8
  call void @_ZN4llvm23SmallVectorTemplateBaseImLb1EE4growEm(ptr noundef nonnull align 8 dereferenceable(16) %22, i64 noundef %23)
  %24 = load i8, ptr %9, align 1
  %25 = trunc i8 %24 to i1
  br i1 %25, label %26, label %31

26:                                               ; preds = %21
  %27 = load ptr, ptr %5, align 8
  %28 = call noundef ptr @_ZN4llvm25SmallVectorTemplateCommonImvE5beginEv(ptr noundef nonnull align 8 dereferenceable(16) %27)
  %29 = load i64, ptr %10, align 8
  %30 = getelementptr inbounds i64, ptr %28, i64 %29
  br label %33

31:                                               ; preds = %21
  %32 = load ptr, ptr %6, align 8
  br label %33

33:                                               ; preds = %31, %26
  %34 = phi ptr [ %30, %26 ], [ %32, %31 ]
  store ptr %34, ptr %4, align 8
  br label %35

35:                                               ; preds = %33, %19
  %36 = load ptr, ptr %4, align 8
  ret ptr %36
}

; Function Attrs: mustprogress nounwind uwtable
define linkonce_odr hidden void @_ZN4llvm23SmallVectorTemplateBaseImLb1EEC2Em(ptr noundef nonnull align 8 dereferenceable(16) %0, i64 noundef %1) unnamed_addr #1 comdat align 2 {
  %3 = alloca ptr, align 8
  %4 = alloca i64, align 8
  store ptr %0, ptr %3, align 8
  store i64 %1, ptr %4, align 8
  %5 = load ptr, ptr %3, align 8
  %6 = load i64, ptr %4, align 8
  call void @_ZN4llvm25SmallVectorTemplateCommonImvEC2Em(ptr noundef nonnull align 8 dereferenceable(16) %5, i64 noundef %6)
  ret void
}

; Function Attrs: mustprogress nounwind uwtable
define linkonce_odr hidden void @_ZN4llvm15SmallVectorImplImED2Ev(ptr noundef nonnull align 8 dereferenceable(16) %0) unnamed_addr #1 comdat align 2 {
  %2 = alloca ptr, align 8
  store ptr %0, ptr %2, align 8
  %3 = load ptr, ptr %2, align 8
  %4 = call noundef zeroext i1 @_ZNK4llvm25SmallVectorTemplateCommonImvE7isSmallEv(ptr noundef nonnull align 8 dereferenceable(16) %3)
  br i1 %4, label %7, label %5

5:                                                ; preds = %1
  %6 = call noundef ptr @_ZN4llvm25SmallVectorTemplateCommonImvE5beginEv(ptr noundef nonnull align 8 dereferenceable(16) %3)
  call void @free(ptr noundef %6) #2
  br label %7

7:                                                ; preds = %5, %1
  ret void
}

; Function Attrs: mustprogress nounwind uwtable
define linkonce_odr hidden void @_ZN4llvm23SmallVectorTemplateBaseImLb1EE13destroy_rangeEPmS2_(ptr noundef %0, ptr noundef %1) #1 comdat align 2 {
  %3 = alloca ptr, align 8
  %4 = alloca ptr, align 8
  store ptr %0, ptr %3, align 8
  store ptr %1, ptr %4, align 8
  ret void
}

; Function Attrs: mustprogress nounwind uwtable
define linkonce_odr hidden noundef ptr @_ZN4llvm25SmallVectorTemplateCommonImvE5beginEv(ptr noundef nonnull align 8 dereferenceable(16) %0) #1 comdat align 2 {
  %2 = alloca ptr, align 8
  store ptr %0, ptr %2, align 8
  %3 = load ptr, ptr %2, align 8
  %4 = getelementptr inbounds nuw %"class.llvm::SmallVectorBase", ptr %3, i32 0, i32 0
  %5 = load ptr, ptr %4, align 8
  ret ptr %5
}

; Function Attrs: mustprogress nounwind uwtable
define linkonce_odr hidden noundef ptr @_ZN4llvm25SmallVectorTemplateCommonImvE3endEv(ptr noundef nonnull align 8 dereferenceable(16) %0) #1 comdat align 2 {
  %2 = alloca ptr, align 8
  store ptr %0, ptr %2, align 8
  %3 = load ptr, ptr %2, align 8
  %4 = call noundef ptr @_ZN4llvm25SmallVectorTemplateCommonImvE5beginEv(ptr noundef nonnull align 8 dereferenceable(16) %3)
  %5 = call noundef i64 @_ZNK4llvm15SmallVectorBaseIjE4sizeEv(ptr noundef nonnull align 8 dereferenceable(16) %3)
  %6 = getelementptr inbounds i64, ptr %4, i64 %5
  ret ptr %6
}

; Function Attrs: mustprogress nounwind uwtable
define linkonce_odr hidden noundef ptr @_ZN4llvm23SmallVectorTemplateBaseImLb1EE28reserveForParamAndGetAddressERmm(ptr noundef nonnull align 8 dereferenceable(16) %0, ptr noundef nonnull align 8 dereferenceable(8) %1, i64 noundef %2) #1 comdat align 2 {
  %4 = alloca ptr, align 8
  %5 = alloca ptr, align 8
  %6 = alloca i64, align 8
  store ptr %0, ptr %4, align 8
  store ptr %1, ptr %5, align 8
  store i64 %2, ptr %6, align 8
  %7 = load ptr, ptr %4, align 8
  %8 = load ptr, ptr %5, align 8
  %9 = load i64, ptr %6, align 8
  %10 = call noundef ptr @_ZN4llvm25SmallVectorTemplateCommonImvE32reserveForParamAndGetAddressImplINS_23SmallVectorTemplateBaseImLb1EEEEEPKmPT_RS5_m(ptr noundef %7, ptr noundef nonnull align 8 dereferenceable(8) %8, i64 noundef %9)
  ret ptr %10
}

; Function Attrs: mustprogress nounwind uwtable
define linkonce_odr hidden void @_ZN4llvm15SmallVectorImplImEC2Ej(ptr noundef nonnull align 8 dereferenceable(16) %0, i32 noundef %1) unnamed_addr #1 comdat align 2 {
  %3 = alloca ptr, align 8
  %4 = alloca i32, align 4
  store ptr %0, ptr %3, align 8
  store i32 %1, ptr %4, align 4
  %5 = load ptr, ptr %3, align 8
  %6 = load i32, ptr %4, align 4
  %7 = zext i32 %6 to i64
  call void @_ZN4llvm23SmallVectorTemplateBaseImLb1EEC2Em(ptr noundef nonnull align 8 dereferenceable(16) %5, i64 noundef %7)
  ret void
}

; Function Attrs: mustprogress nounwind uwtable
define linkonce_odr hidden void @_ZN4llvm11SmallVectorImLj4EED2Ev(ptr noundef nonnull align 8 dereferenceable(48) %0) unnamed_addr #1 comdat align 2 {
  %2 = alloca ptr, align 8
  store ptr %0, ptr %2, align 8
  %3 = load ptr, ptr %2, align 8
  %4 = call noundef ptr @_ZN4llvm25SmallVectorTemplateCommonImvE5beginEv(ptr noundef nonnull align 8 dereferenceable(16) %3)
  %5 = call noundef ptr @_ZN4llvm25SmallVectorTemplateCommonImvE3endEv(ptr noundef nonnull align 8 dereferenceable(16) %3)
  call void @_ZN4llvm23SmallVectorTemplateBaseImLb1EE13destroy_rangeEPmS2_(ptr noundef %4, ptr noundef %5)
  call void @_ZN4llvm15SmallVectorImplImED2Ev(ptr noundef nonnull align 8 dereferenceable(16) %3) #2
  ret void
}

; Function Attrs: mustprogress nounwind uwtable
define linkonce_odr hidden void @_ZN4llvm23SmallVectorTemplateBaseImLb1EE9push_backEm(ptr noundef nonnull align 8 dereferenceable(16) %0, i64 noundef %1) #1 comdat align 2 {
  %3 = alloca ptr, align 8
  %4 = alloca i64, align 8
  %5 = alloca ptr, align 8
  store ptr %0, ptr %3, align 8
  store i64 %1, ptr %4, align 8
  %6 = load ptr, ptr %3, align 8
  %7 = call noundef ptr @_ZN4llvm23SmallVectorTemplateBaseImLb1EE28reserveForParamAndGetAddressERmm(ptr noundef nonnull align 8 dereferenceable(16) %6, ptr noundef nonnull align 8 dereferenceable(8) %4, i64 noundef 1)
  store ptr %7, ptr %5, align 8
  %8 = call noundef ptr @_ZN4llvm25SmallVectorTemplateCommonImvE3endEv(ptr noundef nonnull align 8 dereferenceable(16) %6)
  %9 = load ptr, ptr %5, align 8
  call void @llvm.memcpy.p0.p0.i64(ptr align 1 %8, ptr align 8 %9, i64 8, i1 false)
  %10 = call noundef i64 @_ZNK4llvm15SmallVectorBaseIjE4sizeEv(ptr noundef nonnull align 8 dereferenceable(16) %6)
  %11 = add i64 %10, 1
  call void @_ZN4llvm15SmallVectorBaseIjE8set_sizeEm(ptr noundef nonnull align 8 dereferenceable(16) %6, i64 noundef %11)
  ret void
}

; Function Attrs: mustprogress nounwind uwtable
define linkonce_odr hidden void @_ZN4llvm11SmallVectorImLj4EEC2Ev(ptr noundef nonnull align 8 dereferenceable(48) %0) unnamed_addr #1 comdat align 2 {
  %2 = alloca ptr, align 8
  store ptr %0, ptr %2, align 8
  %3 = load ptr, ptr %2, align 8
  call void @_ZN4llvm15SmallVectorImplImEC2Ej(ptr noundef nonnull align 8 dereferenceable(16) %3, i32 noundef 4)
  ret void
}

; Function Attrs: mustprogress nounwind uwtable
define internal void @"_ZZN12_GLOBAL__N_119ModuleBitcodeWriter19writeModuleMetadataEvENK3$_0clERKN4llvm12GlobalObjectE"(ptr noundef nonnull align 8 dereferenceable(8) %0, ptr noundef nonnull align 8 dereferenceable(56) %1) #1 align 2 {
  %3 = alloca ptr, align 8
  %4 = alloca ptr, align 8
  %5 = alloca %"class.llvm::SmallVector.608", align 8
  store ptr %0, ptr %3, align 8
  store ptr %1, ptr %4, align 8
  %6 = load ptr, ptr %3, align 8
  %7 = getelementptr inbounds nuw %class.anon.555, ptr %6, i32 0, i32 0
  %8 = load ptr, ptr %7, align 8
  call void @_ZN4llvm11SmallVectorImLj4EEC2Ev(ptr noundef nonnull align 8 dereferenceable(48) %5)
  %9 = getelementptr inbounds nuw %"class.(anonymous namespace)::ModuleBitcodeWriterBase", ptr %8, i32 0, i32 2
  %10 = load ptr, ptr %4, align 8
  %11 = call noundef i32 @_ZNK4llvm15ValueEnumerator10getValueIDEPKNS_5ValueE(ptr noundef nonnull align 8 dereferenceable(492) %9, ptr noundef %10)
  %12 = zext i32 %11 to i64
  call void @_ZN4llvm23SmallVectorTemplateBaseImLb1EE9push_backEm(ptr noundef nonnull align 8 dereferenceable(16) %5, i64 noundef %12)
  %13 = load ptr, ptr %4, align 8
  call void @_ZN12_GLOBAL__N_119ModuleBitcodeWriter28pushGlobalMetadataAttachmentERN4llvm15SmallVectorImplImEERKNS1_12GlobalObjectE(ptr noundef nonnull align 8 dereferenceable(712) %8, ptr noundef nonnull align 8 dereferenceable(16) %5, ptr noundef nonnull align 8 dereferenceable(56) %13)
  %14 = getelementptr inbounds nuw %"class.(anonymous namespace)::BitcodeWriterBase", ptr %8, i32 0, i32 0
  %15 = load ptr, ptr %14, align 8
  call void @_ZN4llvm15BitstreamWriter10EmitRecordINS_11SmallVectorImLj4EEEEEvjRKT_j(ptr noundef nonnull align 8 dereferenceable(152) %15, i32 noundef 36, ptr noundef nonnull align 8 dereferenceable(48) %5, i32 noundef 0)
  call void @_ZN4llvm11SmallVectorImLj4EED2Ev(ptr noundef nonnull align 8 dereferenceable(48) %5) #2
  ret void
}