; Function Attrs: mustprogress nounwind uwtable
define internal fastcc void @"_ZZN12_GLOBAL__N_119ModuleBitcodeWriter19writeModuleMetadataEvENK3$_0clERKN4llvm12GlobalObjectE"(ptr %.0.val, ptr noundef nonnull align 8 dereferenceable(56) %0) unnamed_addr #0 align 2 {
  %2 = alloca %"class.llvm::SmallVector.608", align 8
  %3 = getelementptr inbounds i8, ptr %2, i64 16
  call void @_ZN4llvm15SmallVectorBaseIjEC2EPvm(ptr noundef nonnull align 8 dereferenceable(16) %2, ptr noundef nonnull %3, i64 noundef 4) #27
  %4 = getelementptr inbounds nuw i8, ptr %.0.val, i64 24
  %5 = call noundef i32 @_ZNK4llvm15ValueEnumerator10getValueIDEPKNS_5ValueE(ptr noundef nonnull align 8 dereferenceable(492) %4, ptr noundef nonnull %0) #27
  %6 = zext i32 %5 to i64
  %7 = call noundef i64 @_ZNK4llvm15SmallVectorBaseIjE4sizeEv(ptr noundef nonnull align 8 dereferenceable(16) %2) #27
  %8 = add i64 %7, 1
  %9 = call noundef i64 @_ZNK4llvm15SmallVectorBaseIjE8capacityEv(ptr noundef nonnull align 8 dereferenceable(16) %2) #27
  %.not.i.i.i = icmp ugt i64 %8, %9
  br i1 %.not.i.i.i, label %10, label %_ZN4llvm23SmallVectorTemplateBaseImLb1EE9push_backEm.exit

10:                                               ; preds = %1
  call void @_ZN4llvm15SmallVectorBaseIjE8grow_podEPvmm(ptr noundef nonnull align 8 dereferenceable(16) %2, ptr noundef nonnull %3, i64 noundef %8, i64 noundef 8) #27
  br label %_ZN4llvm23SmallVectorTemplateBaseImLb1EE9push_backEm.exit

_ZN4llvm23SmallVectorTemplateBaseImLb1EE9push_backEm.exit: ; preds = %1, %10
  %11 = load ptr, ptr %2, align 8
  %12 = call noundef i64 @_ZNK4llvm15SmallVectorBaseIjE4sizeEv(ptr noundef nonnull align 8 dereferenceable(16) %2) #27
  %13 = getelementptr inbounds i64, ptr %11, i64 %12
  store i64 %6, ptr %13, align 1
  %14 = call noundef i64 @_ZNK4llvm15SmallVectorBaseIjE4sizeEv(ptr noundef nonnull align 8 dereferenceable(16) %2) #27
  %15 = add i64 %14, 1
  call void @_ZN4llvm15SmallVectorBaseIjE8set_sizeEm(ptr noundef nonnull align 8 dereferenceable(16) %2, i64 noundef %15) #27
  call fastcc void @_ZN12_GLOBAL__N_119ModuleBitcodeWriter28pushGlobalMetadataAttachmentERN4llvm15SmallVectorImplImEERKNS1_12GlobalObjectE(ptr noundef nonnull align 8 dereferenceable(712) %.0.val, ptr noundef nonnull align 8 dereferenceable(16) %2, ptr noundef nonnull align 8 dereferenceable(56) %0)
  %16 = load ptr, ptr %.0.val, align 8
  call void @_ZN4llvm15BitstreamWriter10EmitRecordINS_11SmallVectorImLj4EEEEEvjRKT_j(ptr noundef nonnull align 8 dereferenceable(152) %16, i32 noundef 36, ptr noundef nonnull align 8 dereferenceable(48) %2, i32 noundef 0)
  %17 = call noundef i64 @_ZNK4llvm15SmallVectorBaseIjE4sizeEv(ptr noundef nonnull align 8 dereferenceable(16) %2) #27
  %18 = load ptr, ptr %2, align 8
  %19 = icmp eq ptr %18, %3
  br i1 %19, label %_ZN4llvm11SmallVectorImLj4EED2Ev.exit, label %20

20:                                               ; preds = %_ZN4llvm23SmallVectorTemplateBaseImLb1EE9push_backEm.exit
  call void @free(ptr noundef %18) #27
  br label %_ZN4llvm11SmallVectorImLj4EED2Ev.exit

_ZN4llvm11SmallVectorImLj4EED2Ev.exit:            ; preds = %_ZN4llvm23SmallVectorTemplateBaseImLb1EE9push_backEm.exit, %20
  ret void
}